target datalayout = "e-m:e-p270:32:32-p271:32:32-p272:64:64-i64:64-i128:128-f80:128-n8:16:32:64-S128"
target triple = "x86_64-pc-linux-gnu"

%struct.od_ec_dec = type { ptr, i32, ptr, ptr, i32, i16, i16 }

; Function Attrs: nounwind uwtable
define hidden i32 @od_ec_dec_tell(ptr noundef nonnull %0) #0 {
  %2 = alloca ptr, align 8
  store ptr %0, ptr %2, align 8
  %3 = load ptr, ptr %2, align 8
  %4 = getelementptr inbounds nuw %struct.od_ec_dec, ptr %3, i32 0, i32 3
  %5 = load ptr, ptr %4, align 8
  %6 = load ptr, ptr %2, align 8
  %7 = getelementptr inbounds nuw %struct.od_ec_dec, ptr %6, i32 0, i32 0
  %8 = load ptr, ptr %7, align 8
  %9 = ptrtoint ptr %5 to i64
  %10 = ptrtoint ptr %8 to i64
  %11 = sub i64 %9, %10
  %12 = mul nsw i64 %11, 8
  %13 = load ptr, ptr %2, align 8
  %14 = getelementptr inbounds nuw %struct.od_ec_dec, ptr %13, i32 0, i32 6
  %15 = load i16, ptr %14, align 2
  %16 = sext i16 %15 to i64
  %17 = sub nsw i64 %12, %16
  %18 = load ptr, ptr %2, align 8
  %19 = getelementptr inbounds nuw %struct.od_ec_dec, ptr %18, i32 0, i32 1
  %20 = load i32, ptr %19, align 8
  %21 = sext i32 %20 to i64
  %22 = add nsw i64 %17, %21
  %23 = trunc i64 %22 to i32
  ret i32 %23
}

; Function Attrs: nounwind uwtable
define hidden i32 @od_ec_dec_tell_frac(ptr noundef nonnull %0) #0 {
  %2 = alloca ptr, align 8
  store ptr %0, ptr %2, align 8
  %3 = load ptr, ptr %2, align 8
  %4 = call i32 @od_ec_dec_tell(ptr noundef %3)
  %5 = load ptr, ptr %2, align 8
  %6 = getelementptr inbounds nuw %struct.od_ec_dec, ptr %5, i32 0, i32 5
  %7 = load i16, ptr %6, align 4
  %8 = zext i16 %7 to i32
  %9 = call i32 @od_ec_tell_frac(i32 noundef %4, i32 noundef %8)
  ret i32 %9
}