; Function Attrs: nounwind uwtable
define hidden i32 @od_ec_dec_tell_frac(ptr nocapture noundef nonnull readonly %0) local_unnamed_addr #3 {
  %2 = getelementptr inbounds nuw i8, ptr %0, i64 24
  %3 = load ptr, ptr %2, align 8
  %4 = load ptr, ptr %0, align 8
  %5 = ptrtoint ptr %3 to i64
  %6 = ptrtoint ptr %4 to i64
  %7 = sub i64 %5, %6
  %8 = shl nsw i64 %7, 3
  %9 = getelementptr inbounds nuw i8, ptr %0, i64 38
  %10 = load i16, ptr %9, align 2
  %11 = sext i16 %10 to i64
  %12 = sub nsw i64 %8, %11
  %13 = getelementptr inbounds nuw i8, ptr %0, i64 8
  %14 = load i32, ptr %13, align 8
  %15 = trunc i64 %12 to i32
  %16 = add i32 %14, %15
  %17 = getelementptr inbounds nuw i8, ptr %0, i64 36
  %18 = load i16, ptr %17, align 4
  %19 = zext i16 %18 to i32
  %20 = tail call i32 @od_ec_tell_frac(i32 noundef %16, i32 noundef %19) #6
  ret i32 %20
}